; Function Attrs: nounwind uwtable
define ptr @l_Lake_takeArgD___rarg___lambda__1(ptr noundef %0, ptr noundef %1) #0 {
  %3 = ptrtoint ptr %1 to i64
  %4 = and i64 %3, 1
  %.not.i25 = icmp eq i64 %4, 0
  br i1 %.not.i25, label %8, label %5

5:                                                ; preds = %2
  %6 = lshr i64 %3, 1
  %7 = trunc i64 %6 to i32
  br label %lean_obj_tag.exit

8:                                                ; preds = %2
  %9 = getelementptr i8, ptr %1, i64 4
  %.val.i = load i32, ptr %9, align 4
  %10 = lshr i32 %.val.i, 24
  br label %lean_obj_tag.exit

lean_obj_tag.exit:                                ; preds = %5, %8
  %.0.i = phi i32 [ %7, %5 ], [ %10, %8 ]
  %11 = icmp eq i32 %.0.i, 0
  br i1 %11, label %12, label %19

12:                                               ; preds = %lean_obj_tag.exit
  tail call void @lean_inc_heartbeat() #3
  %13 = tail call noalias ptr @mi_malloc_small(i64 noundef 24) #3
  %14 = icmp eq ptr %13, null
  br i1 %14, label %15, label %lean_alloc_ctor.exit

15:                                               ; preds = %12
  tail call void @lean_internal_panic_out_of_memory() #4
  unreachable

lean_alloc_ctor.exit:                             ; preds = %12
  %16 = getelementptr inbounds nuw i8, ptr %13, i64 4
  store i32 1, ptr %13, align 4, !tbaa !4
  store i32 131096, ptr %16, align 4
  %17 = getelementptr inbounds nuw i8, ptr %13, i64 8
  store ptr %0, ptr %17, align 8, !tbaa !11
  %18 = getelementptr inbounds nuw i8, ptr %13, i64 16
  store ptr inttoptr (i64 1 to ptr), ptr %18, align 8, !tbaa !11
  br label %68

19:                                               ; preds = %lean_obj_tag.exit
  %20 = ptrtoint ptr %0 to i64
  %21 = and i64 %20, 1
  %.not = icmp eq i64 %21, 0
  br i1 %.not, label %22, label %lean_dec.exit22

22:                                               ; preds = %19
  %23 = load i32, ptr %0, align 4, !tbaa !4
  %24 = icmp sgt i32 %23, 1
  br i1 %24, label %25, label %27, !prof !9

25:                                               ; preds = %22
  %26 = add nsw i32 %23, -1
  store i32 %26, ptr %0, align 4, !tbaa !4
  br label %lean_dec.exit22

27:                                               ; preds = %22
  %.not.i = icmp eq i32 %23, 0
  br i1 %.not.i, label %lean_dec.exit22, label %28

28:                                               ; preds = %27
  tail call void @lean_dec_ref_cold(ptr noundef nonnull %0) #3
  br label %lean_dec.exit22

lean_dec.exit22:                                  ; preds = %28, %27, %25, %19
  %.val = load i32, ptr %1, align 4, !tbaa !4
  %29 = icmp eq i32 %.val, 1
  br i1 %29, label %30, label %34

30:                                               ; preds = %lean_dec.exit22
  %31 = getelementptr inbounds nuw i8, ptr %1, i64 4
  %32 = load i32, ptr %31, align 4
  %33 = and i32 %32, 16777215
  store i32 %33, ptr %31, align 4
  br label %68

34:                                               ; preds = %lean_dec.exit22
  %35 = getelementptr inbounds nuw i8, ptr %1, i64 8
  %36 = load ptr, ptr %35, align 8, !tbaa !11
  %37 = getelementptr inbounds nuw i8, ptr %1, i64 16
  %38 = load ptr, ptr %37, align 8, !tbaa !11
  %39 = ptrtoint ptr %38 to i64
  %40 = and i64 %39, 1
  %.not32 = icmp eq i64 %40, 0
  br i1 %.not32, label %41, label %lean_inc.exit21

41:                                               ; preds = %34
  %.val.i26 = load i32, ptr %38, align 4, !tbaa !4
  %42 = icmp sgt i32 %.val.i26, 0
  br i1 %42, label %43, label %45, !prof !9

43:                                               ; preds = %41
  %44 = add nuw i32 %.val.i26, 1
  store i32 %44, ptr %38, align 4, !tbaa !4
  br label %lean_inc.exit21

45:                                               ; preds = %41
  %.not.i27 = icmp eq i32 %.val.i26, 0
  br i1 %.not.i27, label %lean_inc.exit21, label %46

46:                                               ; preds = %45
  tail call void @lean_inc_ref_cold(ptr noundef nonnull %38) #3
  br label %lean_inc.exit21

lean_inc.exit21:                                  ; preds = %46, %45, %43, %34
  %47 = ptrtoint ptr %36 to i64
  %48 = and i64 %47, 1
  %.not33 = icmp eq i64 %48, 0
  br i1 %.not33, label %49, label %lean_inc.exit

49:                                               ; preds = %lean_inc.exit21
  %.val.i28 = load i32, ptr %36, align 4, !tbaa !4
  %50 = icmp sgt i32 %.val.i28, 0
  br i1 %50, label %51, label %53, !prof !9

51:                                               ; preds = %49
  %52 = add nuw i32 %.val.i28, 1
  store i32 %52, ptr %36, align 4, !tbaa !4
  br label %lean_inc.exit

53:                                               ; preds = %49
  %.not.i29 = icmp eq i32 %.val.i28, 0
  br i1 %.not.i29, label %lean_inc.exit, label %54

54:                                               ; preds = %53
  tail call void @lean_inc_ref_cold(ptr noundef nonnull %36) #3
  br label %lean_inc.exit

lean_inc.exit:                                    ; preds = %54, %53, %51, %lean_inc.exit21
  br i1 %.not.i25, label %55, label %lean_dec.exit

55:                                               ; preds = %lean_inc.exit
  %56 = load i32, ptr %1, align 4, !tbaa !4
  %57 = icmp sgt i32 %56, 1
  br i1 %57, label %58, label %60, !prof !9

58:                                               ; preds = %55
  %59 = add nsw i32 %56, -1
  store i32 %59, ptr %1, align 4, !tbaa !4
  br label %lean_dec.exit

60:                                               ; preds = %55
  %.not.i23 = icmp eq i32 %56, 0
  br i1 %.not.i23, label %lean_dec.exit, label %61

61:                                               ; preds = %60
  tail call void @lean_dec_ref_cold(ptr noundef nonnull %1) #3
  br label %lean_dec.exit

lean_dec.exit:                                    ; preds = %61, %60, %58, %lean_inc.exit
  tail call void @lean_inc_heartbeat() #3
  %62 = tail call noalias ptr @mi_malloc_small(i64 noundef 24) #3
  %63 = icmp eq ptr %62, null
  br i1 %63, label %64, label %lean_alloc_ctor.exit31

64:                                               ; preds = %lean_dec.exit
  tail call void @lean_internal_panic_out_of_memory() #4
  unreachable

lean_alloc_ctor.exit31:                           ; preds = %lean_dec.exit
  %65 = getelementptr inbounds nuw i8, ptr %62, i64 4
  store i32 1, ptr %62, align 4, !tbaa !4
  store i32 131096, ptr %65, align 4
  %66 = getelementptr inbounds nuw i8, ptr %62, i64 8
  store ptr %36, ptr %66, align 8, !tbaa !11
  %67 = getelementptr inbounds nuw i8, ptr %62, i64 16
  store ptr %38, ptr %67, align 8, !tbaa !11
  br label %68

68:                                               ; preds = %30, %lean_alloc_ctor.exit31, %lean_alloc_ctor.exit
  %.0 = phi ptr [ %13, %lean_alloc_ctor.exit ], [ %1, %30 ], [ %62, %lean_alloc_ctor.exit31 ]
  ret ptr %.0
}